target datalayout = "e-m:e-p270:32:32-p271:32:32-p272:64:64-i64:64-i128:128-f80:128-n8:16:32:64-S128"
target triple = "x86_64-pc-linux-gnu"

%struct.SDL_GPUDevice = type { ptr, ptr, ptr, ptr, ptr, ptr, ptr, ptr, ptr, ptr, ptr, ptr, ptr, ptr, ptr, ptr, ptr, ptr, ptr, ptr, ptr, ptr, ptr, ptr, ptr, ptr, ptr, ptr, ptr, ptr, ptr, ptr, ptr, ptr, ptr, ptr, ptr, ptr, ptr, ptr, ptr, ptr, ptr, ptr, ptr, ptr, ptr, ptr, ptr, ptr, ptr, ptr, ptr, ptr, ptr, ptr, ptr, ptr, ptr, ptr, ptr, ptr, ptr, ptr, ptr, ptr, ptr, ptr, ptr, ptr, ptr, ptr, ptr, ptr, ptr, ptr, ptr, ptr, ptr, ptr, ptr, ptr, ptr, ptr, ptr, i32, i8 }

@.str.3 = private unnamed_addr constant [19 x i8] c"Invalid GPU device\00", align 1
@.str.4 = private unnamed_addr constant [26 x i8] c"Parameter '%s' is invalid\00", align 1
@.str.373 = private unnamed_addr constant [6 x i8] c"fence\00", align 1

; Function Attrs: nounwind uwtable
define hidden zeroext i1 @SDL_QueryGPUFence_REAL(ptr noundef %0, ptr noundef %1) #0 {
  %3 = alloca i1, align 1
  %4 = alloca ptr, align 8
  %5 = alloca ptr, align 8
  store ptr %0, ptr %4, align 8
  store ptr %1, ptr %5, align 8
  %6 = load ptr, ptr %4, align 8
  %7 = icmp eq ptr %6, null
  br i1 %7, label %8, label %10

8:                                                ; preds = %2
  %9 = call zeroext i1 (ptr, ...) @SDL_SetError_REAL(ptr noundef @.str.3)
  store i1 false, ptr %3, align 1
  br label %24

10:                                               ; preds = %2
  %11 = load ptr, ptr %5, align 8
  %12 = icmp eq ptr %11, null
  br i1 %12, label %13, label %15

13:                                               ; preds = %10
  %14 = call zeroext i1 (ptr, ...) @SDL_SetError_REAL(ptr noundef @.str.4, ptr noundef @.str.373)
  store i1 false, ptr %3, align 1
  br label %24

15:                                               ; preds = %10
  %16 = load ptr, ptr %4, align 8
  %17 = getelementptr inbounds nuw %struct.SDL_GPUDevice, ptr %16, i32 0, i32 79
  %18 = load ptr, ptr %17, align 8
  %19 = load ptr, ptr %4, align 8
  %20 = getelementptr inbounds nuw %struct.SDL_GPUDevice, ptr %19, i32 0, i32 83
  %21 = load ptr, ptr %20, align 8
  %22 = load ptr, ptr %5, align 8
  %23 = call zeroext i1 %18(ptr noundef %21, ptr noundef %22)
  store i1 %23, ptr %3, align 1
  br label %24

24:                                               ; preds = %15, %13, %8
  %25 = load i1, ptr %3, align 1
  ret i1 %25
}